target datalayout = "e-m:e-p270:32:32-p271:32:32-p272:64:64-i64:64-i128:128-f80:128-n8:16:32:64-S128"
target triple = "x86_64-pc-linux-gnu"

@proto_register_resp.ett = internal global [3 x ptr] [ptr @ett_resp, ptr @ett_resp_bulk_string, ptr @ett_resp_array], align 16
@.str.25 = private unnamed_addr constant [29 x i8] c"REdis Serialization Protocol\00", align 1
@.str.26 = private unnamed_addr constant [5 x i8] c"RESP\00", align 1
@.str.27 = private unnamed_addr constant [5 x i8] c"resp\00", align 1
@proto_resp = internal global i32 0, align 4
@.str.28 = private unnamed_addr constant [15 x i8] c"desegment_data\00", align 1
@.str.29 = private unnamed_addr constant [52 x i8] c"Reassemble RESP data spanning multiple TCP segments\00", align 1
@.str.30 = private unnamed_addr constant [223 x i8] c"Whether the RESP dissector should reassemble command and response lines spanning multiple TCP segments. To use this option, you must also enable \22Allow subdissectors to reassemble TCP streams\22 in the TCP protocol settings.\00", align 1
@resp_desegment = internal global i8 1, align 1
@resp_handle = internal global ptr null, align 8

; Function Attrs: null_pointer_is_valid sspstrong uwtable
define hidden void @proto_register_resp() #0 {
  %1 = alloca ptr, align 8
  %2 = alloca ptr, align 8
  %3 = call i32 @proto_register_protocol(ptr noundef @.str.25, ptr noundef @.str.26, ptr noundef @.str.27)
  store i32 %3, ptr @proto_resp, align 4
  call void @llvm.lifetime.start.p0(i64 8, ptr %1) #3
  %4 = load i32, ptr @proto_resp, align 4
  %5 = call ptr @prefs_register_protocol(i32 noundef %4, ptr noundef null)
  store ptr %5, ptr %1, align 8
  %6 = load ptr, ptr %1, align 8
  call void @prefs_register_bool_preference(ptr noundef %6, ptr noundef @.str.28, ptr noundef @.str.29, ptr noundef @.str.30, ptr noundef @resp_desegment)
  call void @llvm.lifetime.start.p0(i64 8, ptr %2) #3
  %7 = load i32, ptr @proto_resp, align 4
  %8 = call ptr @expert_register_protocol(i32 noundef %7)
  store ptr %8, ptr %2, align 8
  %9 = load ptr, ptr %2, align 8
  call void @expert_register_field_array(ptr noundef %9, ptr noundef @proto_register_resp.ei, i32 noundef 4)
  %10 = load i32, ptr @proto_resp, align 4
  %11 = call ptr @register_dissector(ptr noundef @.str.27, ptr noundef @dissect_resp, i32 noundef %10)
  store ptr %11, ptr @resp_handle, align 8
  %12 = load i32, ptr @proto_resp, align 4
  call void @proto_register_field_array(i32 noundef %12, ptr noundef @proto_register_resp.hf, i32 noundef 9)
  call void @proto_register_subtree_array(ptr noundef @proto_register_resp.ett, i32 noundef 3)
  call void @llvm.lifetime.end.p0(i64 8, ptr %2) #3
  call void @llvm.lifetime.end.p0(i64 8, ptr %1) #3
  ret void
}