; Function Attrs: null_pointer_is_valid sspstrong uwtable
define hidden void @proto_register_resp() local_unnamed_addr #0 {
  %1 = tail call i32 @proto_register_protocol(ptr noundef nonnull @.str.25, ptr noundef nonnull @.str.26, ptr noundef nonnull @.str.27)
  store i32 %1, ptr @proto_resp, align 4
  %2 = tail call ptr @prefs_register_protocol(i32 noundef %1, ptr noundef null)
  tail call void @prefs_register_bool_preference(ptr noundef %2, ptr noundef nonnull @.str.28, ptr noundef nonnull @.str.29, ptr noundef nonnull @.str.30, ptr noundef nonnull @resp_desegment)
  %3 = load i32, ptr @proto_resp, align 4
  %4 = tail call ptr @expert_register_protocol(i32 noundef %3)
  tail call void @expert_register_field_array(ptr noundef %4, ptr noundef nonnull @proto_register_resp.ei, i32 noundef 4)
  %5 = load i32, ptr @proto_resp, align 4
  %6 = tail call ptr @register_dissector(ptr noundef nonnull @.str.27, ptr noundef nonnull @dissect_resp, i32 noundef %5)
  store ptr %6, ptr @resp_handle, align 8
  %7 = load i32, ptr @proto_resp, align 4
  tail call void @proto_register_field_array(i32 noundef %7, ptr noundef nonnull @proto_register_resp.hf, i32 noundef 9)
  tail call void @proto_register_subtree_array(ptr noundef nonnull @proto_register_resp.ett, i32 noundef 3)
  ret void
}